target datalayout = "e-m:e-p270:32:32-p271:32:32-p272:64:64-i64:64-i128:128-f80:128-n8:16:32:64-S128"
target triple = "x86_64-pc-linux-gnu"

%class.ptr_vector = type { %class.vector.0 }
%class.vector.0 = type { ptr }
%"struct.euf::ac_plugin::ref_counts" = type { %class.svector.9, %class.svector.9 }
%class.svector.9 = type { %class.vector.10 }
%class.vector.10 = type { ptr }
%"struct.euf::ac_plugin::monomial_t" = type { %class.ptr_vector, %"struct.euf::ac_plugin::bloom" }
%"struct.euf::ac_plugin::bloom" = type { i64, i64 }
%class.anon.99 = type { ptr, ptr }

; Function Attrs: mustprogress uwtable
define linkonce_odr hidden noundef nonnull align 4 dereferenceable(4) ptr @_ZNK6vectorIjLb0EjE3getEjRKj(ptr noundef nonnull align 8 dereferenceable(8) %0, i32 noundef %1, ptr noundef nonnull align 4 dereferenceable(4) %2) #4 comdat align 2 {
  %4 = alloca ptr, align 8
  %5 = alloca ptr, align 8
  %6 = alloca i32, align 4
  %7 = alloca ptr, align 8
  store ptr %0, ptr %5, align 8, !tbaa !122
  store i32 %1, ptr %6, align 4, !tbaa !10
  store ptr %2, ptr %7, align 8, !tbaa !184
  %8 = load ptr, ptr %5, align 8
  %9 = load i32, ptr %6, align 4, !tbaa !10
  %10 = call noundef i32 @_ZNK6vectorIjLb0EjE4sizeEv(ptr noundef nonnull align 8 dereferenceable(8) %8)
  %11 = icmp uge i32 %9, %10
  br i1 %11, label %12, label %14

12:                                               ; preds = %3
  %13 = load ptr, ptr %7, align 8, !tbaa !184
  store ptr %13, ptr %4, align 8
  br label %20

14:                                               ; preds = %3
  %15 = getelementptr inbounds nuw %class.vector.10, ptr %8, i32 0, i32 0
  %16 = load ptr, ptr %15, align 8, !tbaa !185
  %17 = load i32, ptr %6, align 4, !tbaa !10
  %18 = zext i32 %17 to i64
  %19 = getelementptr inbounds nuw i32, ptr %16, i64 %18
  store ptr %19, ptr %4, align 8
  br label %20

20:                                               ; preds = %14, %12
  %21 = load ptr, ptr %4, align 8
  ret ptr %21
}

; Function Attrs: mustprogress nounwind uwtable
define linkonce_odr hidden noundef i32 @_ZNK6vectorIjLb0EjE4sizeEv(ptr noundef nonnull align 8 dereferenceable(8) %0) #5 comdat align 2 {
  %2 = alloca i32, align 4
  %3 = alloca ptr, align 8
  store ptr %0, ptr %3, align 8, !tbaa !122
  %4 = load ptr, ptr %3, align 8
  %5 = getelementptr inbounds nuw %class.vector.10, ptr %4, i32 0, i32 0
  %6 = load ptr, ptr %5, align 8, !tbaa !185
  %7 = icmp eq ptr %6, null
  br i1 %7, label %8, label %9

8:                                                ; preds = %1
  store i32 0, ptr %2, align 4
  br label %14

9:                                                ; preds = %1
  %10 = getelementptr inbounds nuw %class.vector.10, ptr %4, i32 0, i32 0
  %11 = load ptr, ptr %10, align 8, !tbaa !185
  %12 = getelementptr inbounds i32, ptr %11, i64 -1
  %13 = load i32, ptr %12, align 4, !tbaa !10
  store i32 %13, ptr %2, align 4
  br label %14

14:                                               ; preds = %9, %8
  %15 = load i32, ptr %2, align 4
  ret i32 %15
}

; Function Attrs: mustprogress uwtable
define linkonce_odr hidden noundef i32 @_ZNK3euf9ac_plugin10ref_countsixEj(ptr noundef nonnull align 8 dereferenceable(16) %0, i32 noundef %1) #4 comdat align 2 {
  %3 = alloca ptr, align 8
  %4 = alloca i32, align 4
  %5 = alloca i32, align 4
  store ptr %0, ptr %3, align 8, !tbaa !116
  store i32 %1, ptr %4, align 4, !tbaa !10
  %6 = load ptr, ptr %3, align 8
  %7 = getelementptr inbounds nuw %"struct.euf::ac_plugin::ref_counts", ptr %6, i32 0, i32 1
  %8 = load i32, ptr %4, align 4, !tbaa !10
  call void @llvm.lifetime.start.p0(i64 4, ptr %5) #3
  store i32 0, ptr %5, align 4, !tbaa !10
  %9 = call noundef nonnull align 4 dereferenceable(4) ptr @_ZNK6vectorIjLb0EjE3getEjRKj(ptr noundef nonnull align 8 dereferenceable(8) %7, i32 noundef %8, ptr noundef nonnull align 4 dereferenceable(4) %5)
  %10 = load i32, ptr %9, align 4, !tbaa !10
  call void @llvm.lifetime.end.p0(i64 4, ptr %5) #3
  ret i32 %10
}

; Function Attrs: mustprogress nounwind uwtable
define linkonce_odr hidden noundef ptr @_ZNK6vectorIjLb0EjE3endEv(ptr noundef nonnull align 8 dereferenceable(8) %0) #5 comdat align 2 {
  %2 = alloca ptr, align 8
  store ptr %0, ptr %2, align 8, !tbaa !122
  %3 = load ptr, ptr %2, align 8
  %4 = getelementptr inbounds nuw %class.vector.10, ptr %3, i32 0, i32 0
  %5 = load ptr, ptr %4, align 8, !tbaa !185
  %6 = call noundef i32 @_ZNK6vectorIjLb0EjE4sizeEv(ptr noundef nonnull align 8 dereferenceable(8) %3)
  %7 = zext i32 %6 to i64
  %8 = getelementptr inbounds nuw i32, ptr %5, i64 %7
  ret ptr %8
}

; Function Attrs: mustprogress nounwind uwtable
define linkonce_odr hidden noundef ptr @_ZNK6vectorIjLb0EjE5beginEv(ptr noundef nonnull align 8 dereferenceable(8) %0) #5 comdat align 2 {
  %2 = alloca ptr, align 8
  store ptr %0, ptr %2, align 8, !tbaa !122
  %3 = load ptr, ptr %2, align 8
  %4 = getelementptr inbounds nuw %class.vector.10, ptr %3, i32 0, i32 0
  %5 = load ptr, ptr %4, align 8, !tbaa !185
  ret ptr %5
}

; Function Attrs: inlinehint mustprogress uwtable
define internal noundef zeroext i1 @"_ZZN3euf9ac_plugin11is_supersetERKNS0_10ref_countsERS1_RKNS0_10monomial_tEENK3$_0clEj"(ptr noundef nonnull align 8 dereferenceable(16) %0, i32 noundef %1) #9 align 2 {
  %3 = alloca ptr, align 8
  %4 = alloca i32, align 4
  store ptr %0, ptr %3, align 8, !tbaa !300
  store i32 %1, ptr %4, align 4, !tbaa !10
  %5 = load ptr, ptr %3, align 8
  %6 = getelementptr inbounds nuw %class.anon.99, ptr %5, i32 0, i32 0
  %7 = load ptr, ptr %6, align 8, !tbaa !537
  %8 = load i32, ptr %4, align 4, !tbaa !10
  %9 = call noundef i32 @_ZNK3euf9ac_plugin10ref_countsixEj(ptr noundef nonnull align 8 dereferenceable(16) %7, i32 noundef %8)
  %10 = getelementptr inbounds nuw %class.anon.99, ptr %5, i32 0, i32 1
  %11 = load ptr, ptr %10, align 8, !tbaa !539
  %12 = load i32, ptr %4, align 4, !tbaa !10
  %13 = call noundef i32 @_ZNK3euf9ac_plugin10ref_countsixEj(ptr noundef nonnull align 8 dereferenceable(16) %11, i32 noundef %12)
  %14 = icmp ule i32 %9, %13
  ret i1 %14
}

; Function Attrs: mustprogress nounwind uwtable
define linkonce_odr hidden noundef ptr @_ZNK3euf9ac_plugin10ref_counts3endEv(ptr noundef nonnull align 8 dereferenceable(16) %0) #5 comdat align 2 {
  %2 = alloca ptr, align 8
  store ptr %0, ptr %2, align 8, !tbaa !116
  %3 = load ptr, ptr %2, align 8
  %4 = getelementptr inbounds nuw %"struct.euf::ac_plugin::ref_counts", ptr %3, i32 0, i32 0
  %5 = call noundef ptr @_ZNK6vectorIjLb0EjE3endEv(ptr noundef nonnull align 8 dereferenceable(8) %4)
  ret ptr %5
}

; Function Attrs: mustprogress nounwind uwtable
define linkonce_odr hidden noundef ptr @_ZNK3euf9ac_plugin10ref_counts5beginEv(ptr noundef nonnull align 8 dereferenceable(16) %0) #5 comdat align 2 {
  %2 = alloca ptr, align 8
  store ptr %0, ptr %2, align 8, !tbaa !116
  %3 = load ptr, ptr %2, align 8
  %4 = getelementptr inbounds nuw %"struct.euf::ac_plugin::ref_counts", ptr %3, i32 0, i32 0
  %5 = call noundef ptr @_ZNK6vectorIjLb0EjE5beginEv(ptr noundef nonnull align 8 dereferenceable(8) %4)
  ret ptr %5
}

; Function Attrs: mustprogress uwtable
define internal noundef zeroext i1 @"_Z6all_ofIN3euf9ac_plugin10ref_countsEZNS1_11is_supersetERKS2_RS2_RKNS1_10monomial_tEE3$_0EbRKT_RKT0_"(ptr noundef nonnull align 8 dereferenceable(16) %0, ptr noundef nonnull align 8 dereferenceable(16) %1) #4 {
  %3 = alloca i1, align 1
  %4 = alloca ptr, align 8
  %5 = alloca ptr, align 8
  %6 = alloca ptr, align 8
  %7 = alloca ptr, align 8
  %8 = alloca ptr, align 8
  %9 = alloca i32, align 4
  %10 = alloca ptr, align 8
  store ptr %0, ptr %4, align 8, !tbaa !116
  store ptr %1, ptr %5, align 8, !tbaa !300
  call void @llvm.lifetime.start.p0(i64 8, ptr %6) #3
  %11 = load ptr, ptr %4, align 8, !tbaa !116
  store ptr %11, ptr %6, align 8, !tbaa !116
  call void @llvm.lifetime.start.p0(i64 8, ptr %7) #3
  %12 = load ptr, ptr %6, align 8, !tbaa !116
  %13 = call noundef ptr @_ZNK3euf9ac_plugin10ref_counts5beginEv(ptr noundef nonnull align 8 dereferenceable(16) %12)
  store ptr %13, ptr %7, align 8, !tbaa !184
  call void @llvm.lifetime.start.p0(i64 8, ptr %8) #3
  %14 = load ptr, ptr %6, align 8, !tbaa !116
  %15 = call noundef ptr @_ZNK3euf9ac_plugin10ref_counts3endEv(ptr noundef nonnull align 8 dereferenceable(16) %14)
  store ptr %15, ptr %8, align 8, !tbaa !184
  br label %16

16:                                               ; preds = %32, %2
  %17 = load ptr, ptr %7, align 8, !tbaa !184
  %18 = load ptr, ptr %8, align 8, !tbaa !184
  %19 = icmp ne ptr %17, %18
  br i1 %19, label %21, label %20

20:                                               ; preds = %16
  store i32 2, ptr %9, align 4
  br label %35

21:                                               ; preds = %16
  call void @llvm.lifetime.start.p0(i64 8, ptr %10) #3
  %22 = load ptr, ptr %7, align 8, !tbaa !184
  store ptr %22, ptr %10, align 8, !tbaa !184
  %23 = load ptr, ptr %5, align 8, !tbaa !300
  %24 = load ptr, ptr %10, align 8, !tbaa !184
  %25 = load i32, ptr %24, align 4, !tbaa !10
  %26 = call noundef zeroext i1 @"_ZZN3euf9ac_plugin11is_supersetERKNS0_10ref_countsERS1_RKNS0_10monomial_tEENK3$_0clEj"(ptr noundef nonnull align 8 dereferenceable(16) %23, i32 noundef %25)
  br i1 %26, label %28, label %27

27:                                               ; preds = %21
  store i1 false, ptr %3, align 1
  store i32 1, ptr %9, align 4
  br label %29

28:                                               ; preds = %21
  store i32 0, ptr %9, align 4
  br label %29

29:                                               ; preds = %28, %27
  call void @llvm.lifetime.end.p0(i64 8, ptr %10) #3
  %30 = load i32, ptr %9, align 4
  switch i32 %30, label %35 [
    i32 0, label %31
  ]

31:                                               ; preds = %29
  br label %32

32:                                               ; preds = %31
  %33 = load ptr, ptr %7, align 8, !tbaa !184
  %34 = getelementptr inbounds nuw i32, ptr %33, i32 1
  store ptr %34, ptr %7, align 8, !tbaa !184
  br label %16

35:                                               ; preds = %29, %20
  call void @llvm.lifetime.end.p0(i64 8, ptr %8) #3
  call void @llvm.lifetime.end.p0(i64 8, ptr %7) #3
  call void @llvm.lifetime.end.p0(i64 8, ptr %6) #3
  %36 = load i32, ptr %9, align 4
  switch i32 %36, label %40 [
    i32 2, label %37
    i32 1, label %38
  ]

37:                                               ; preds = %35
  store i1 true, ptr %3, align 1
  br label %38

38:                                               ; preds = %37, %35
  %39 = load i1, ptr %3, align 1
  ret i1 %39

40:                                               ; preds = %35
  unreachable
}

; Function Attrs: mustprogress uwtable
define hidden void @_ZNK3euf9ac_plugin15init_ref_countsERKNS0_10monomial_tERNS0_10ref_countsE(ptr noundef nonnull align 8 dereferenceable(432) %0, ptr noundef nonnull align 8 dereferenceable(24) %1, ptr noundef nonnull align 8 dereferenceable(16) %2) #4 align 2 {
  %4 = alloca ptr, align 8
  %5 = alloca ptr, align 8
  %6 = alloca ptr, align 8
  store ptr %0, ptr %4, align 8, !tbaa !3
  store ptr %1, ptr %5, align 8, !tbaa !162
  store ptr %2, ptr %6, align 8, !tbaa !116
  %7 = load ptr, ptr %4, align 8
  %8 = load ptr, ptr %5, align 8, !tbaa !162
  %9 = getelementptr inbounds nuw %"struct.euf::ac_plugin::monomial_t", ptr %8, i32 0, i32 0
  %10 = load ptr, ptr %6, align 8, !tbaa !116
  call void @_ZNK3euf9ac_plugin15init_ref_countsERK10ptr_vectorINS0_4nodeEERNS0_10ref_countsE(ptr noundef nonnull align 8 dereferenceable(432) %7, ptr noundef nonnull align 8 dereferenceable(8) %9, ptr noundef nonnull align 8 dereferenceable(16) %10)
  ret void
}

; Function Attrs: mustprogress uwtable
define hidden noundef zeroext i1 @_ZN3euf9ac_plugin11is_supersetERKNS0_10ref_countsERS1_RKNS0_10monomial_tE(ptr noundef nonnull align 8 dereferenceable(432) %0, ptr noundef nonnull align 8 dereferenceable(16) %1, ptr noundef nonnull align 8 dereferenceable(16) %2, ptr noundef nonnull align 8 dereferenceable(24) %3) #4 align 2 {
  %5 = alloca ptr, align 8
  %6 = alloca ptr, align 8
  %7 = alloca ptr, align 8
  %8 = alloca ptr, align 8
  %9 = alloca %class.anon.99, align 8
  store ptr %0, ptr %5, align 8, !tbaa !3
  store ptr %1, ptr %6, align 8, !tbaa !116
  store ptr %2, ptr %7, align 8, !tbaa !116
  store ptr %3, ptr %8, align 8, !tbaa !162
  %10 = load ptr, ptr %5, align 8
  %11 = load ptr, ptr %8, align 8, !tbaa !162
  %12 = load ptr, ptr %7, align 8, !tbaa !116
  call void @_ZNK3euf9ac_plugin15init_ref_countsERKNS0_10monomial_tERNS0_10ref_countsE(ptr noundef nonnull align 8 dereferenceable(432) %10, ptr noundef nonnull align 8 dereferenceable(24) %11, ptr noundef nonnull align 8 dereferenceable(16) %12)
  %13 = load ptr, ptr %6, align 8, !tbaa !116
  call void @llvm.lifetime.start.p0(i64 16, ptr %9) #3
  %14 = getelementptr inbounds nuw %class.anon.99, ptr %9, i32 0, i32 0
  %15 = load ptr, ptr %6, align 8, !tbaa !116
  store ptr %15, ptr %14, align 8, !tbaa !116
  %16 = getelementptr inbounds nuw %class.anon.99, ptr %9, i32 0, i32 1
  %17 = load ptr, ptr %7, align 8, !tbaa !116
  store ptr %17, ptr %16, align 8, !tbaa !116
  %18 = call noundef zeroext i1 @"_Z6all_ofIN3euf9ac_plugin10ref_countsEZNS1_11is_supersetERKS2_RS2_RKNS1_10monomial_tEE3$_0EbRKT_RKT0_"(ptr noundef nonnull align 8 dereferenceable(16) %13, ptr noundef nonnull align 8 dereferenceable(16) %9)
  call void @llvm.lifetime.end.p0(i64 16, ptr %9) #3
  ret i1 %18
}